target datalayout = "e-m:e-p270:32:32-p271:32:32-p272:64:64-i64:64-i128:128-f80:128-n8:16:32:64-S128"
target triple = "x86_64-pc-linux-gnu"

%"class.std::__cxx11::basic_string" = type { %"struct.std::__cxx11::basic_string<char>::_Alloc_hider", i64, %union.anon }
%"struct.std::__cxx11::basic_string<char>::_Alloc_hider" = type { ptr }
%union.anon = type { i64, [8 x i8] }
%"class.google::protobuf::stringpiece_internal::StringPiece" = type { ptr, i64 }
%"struct.google::protobuf::strings::AlphaNum" = type { ptr, i64, [32 x i8] }

@.str = private unnamed_addr constant [2 x i8] c"/\00", align 1

; Function Attrs: mustprogress nounwind uwtable
define linkonce_odr hidden noundef ptr @_ZNK6google8protobuf20stringpiece_internal11StringPiece4dataEv(ptr noundef nonnull align 8 dereferenceable(16) %0) #5 comdat align 2 {
  %2 = alloca ptr, align 8
  store ptr %0, ptr %2, align 8, !tbaa !11
  %3 = load ptr, ptr %2, align 8
  %4 = getelementptr inbounds nuw %"class.google::protobuf::stringpiece_internal::StringPiece", ptr %3, i32 0, i32 0
  %5 = load ptr, ptr %4, align 8, !tbaa !15
  ret ptr %5
}

; Function Attrs: mustprogress nounwind uwtable
define linkonce_odr hidden void @_ZN6google8protobuf7strings8AlphaNumC2EPKc(ptr noundef nonnull align 8 dereferenceable(48) %0, ptr noundef %1) unnamed_addr #5 comdat align 2 {
  %3 = alloca ptr, align 8
  %4 = alloca ptr, align 8
  store ptr %0, ptr %3, align 8, !tbaa !17
  store ptr %1, ptr %4, align 8, !tbaa !4
  %5 = load ptr, ptr %3, align 8
  %6 = getelementptr inbounds nuw %"struct.google::protobuf::strings::AlphaNum", ptr %5, i32 0, i32 0
  %7 = load ptr, ptr %4, align 8, !tbaa !4
  store ptr %7, ptr %6, align 8, !tbaa !19
  %8 = getelementptr inbounds nuw %"struct.google::protobuf::strings::AlphaNum", ptr %5, i32 0, i32 1
  %9 = load ptr, ptr %4, align 8, !tbaa !4
  %10 = call i64 @strlen(ptr noundef %9) #17
  store i64 %10, ptr %8, align 8, !tbaa !21
  ret void
}

; Function Attrs: mustprogress uwtable
define linkonce_odr hidden void @_ZN6google8protobuf7strings8AlphaNumC2ENS0_20stringpiece_internal11StringPieceE(ptr noundef nonnull align 8 dereferenceable(48) %0, ptr %1, i64 %2) unnamed_addr #4 comdat align 2 {
  %4 = alloca %"class.google::protobuf::stringpiece_internal::StringPiece", align 8
  %5 = alloca ptr, align 8
  %6 = getelementptr inbounds nuw { ptr, i64 }, ptr %4, i32 0, i32 0
  store ptr %1, ptr %6, align 8
  %7 = getelementptr inbounds nuw { ptr, i64 }, ptr %4, i32 0, i32 1
  store i64 %2, ptr %7, align 8
  store ptr %0, ptr %5, align 8, !tbaa !17
  %8 = load ptr, ptr %5, align 8
  %9 = getelementptr inbounds nuw %"struct.google::protobuf::strings::AlphaNum", ptr %8, i32 0, i32 0
  %10 = call noundef ptr @_ZNK6google8protobuf20stringpiece_internal11StringPiece4dataEv(ptr noundef nonnull align 8 dereferenceable(16) %4)
  store ptr %10, ptr %9, align 8, !tbaa !19
  %11 = getelementptr inbounds nuw %"struct.google::protobuf::strings::AlphaNum", ptr %8, i32 0, i32 1
  %12 = call noundef i64 @_ZNK6google8protobuf20stringpiece_internal11StringPiece4sizeEv(ptr noundef nonnull align 8 dereferenceable(16) %4)
  store i64 %12, ptr %11, align 8, !tbaa !21
  ret void
}

; Function Attrs: mustprogress nounwind uwtable
define linkonce_odr hidden noundef signext i8 @_ZNK6google8protobuf20stringpiece_internal11StringPieceixEm(ptr noundef nonnull align 8 dereferenceable(16) %0, i64 noundef %1) #5 comdat align 2 {
  %3 = alloca ptr, align 8
  %4 = alloca i64, align 8
  store ptr %0, ptr %3, align 8, !tbaa !11
  store i64 %1, ptr %4, align 8, !tbaa !9
  %5 = load ptr, ptr %3, align 8
  %6 = getelementptr inbounds nuw %"class.google::protobuf::stringpiece_internal::StringPiece", ptr %5, i32 0, i32 0
  %7 = load ptr, ptr %6, align 8, !tbaa !15
  %8 = load i64, ptr %4, align 8, !tbaa !9
  %9 = getelementptr inbounds nuw i8, ptr %7, i64 %8
  %10 = load i8, ptr %9, align 1, !tbaa !16
  ret i8 %10
}

; Function Attrs: mustprogress nounwind uwtable
define linkonce_odr hidden noundef i64 @_ZNK6google8protobuf20stringpiece_internal11StringPiece4sizeEv(ptr noundef nonnull align 8 dereferenceable(16) %0) #5 comdat align 2 {
  %2 = alloca ptr, align 8
  store ptr %0, ptr %2, align 8, !tbaa !11
  %3 = load ptr, ptr %2, align 8
  %4 = getelementptr inbounds nuw %"class.google::protobuf::stringpiece_internal::StringPiece", ptr %3, i32 0, i32 1
  %5 = load i64, ptr %4, align 8, !tbaa !13
  ret i64 %5
}

; Function Attrs: mustprogress nounwind uwtable
define linkonce_odr hidden noundef zeroext i1 @_ZNK6google8protobuf20stringpiece_internal11StringPiece5emptyEv(ptr noundef nonnull align 8 dereferenceable(16) %0) #5 comdat align 2 {
  %2 = alloca ptr, align 8
  store ptr %0, ptr %2, align 8, !tbaa !11
  %3 = load ptr, ptr %2, align 8
  %4 = getelementptr inbounds nuw %"class.google::protobuf::stringpiece_internal::StringPiece", ptr %3, i32 0, i32 1
  %5 = load i64, ptr %4, align 8, !tbaa !13
  %6 = icmp eq i64 %5, 0
  ret i1 %6
}

; Function Attrs: mustprogress uwtable
define hidden void @_ZN6google8protobuf8internal10GetTypeUrlB5cxx11ENS0_20stringpiece_internal11StringPieceES3_(ptr dead_on_unwind noalias writable sret(%"class.std::__cxx11::basic_string") align 8 %0, ptr %1, i64 %2, ptr %3, i64 %4) #4 {
  %6 = alloca ptr, align 8
  %7 = alloca %"class.google::protobuf::stringpiece_internal::StringPiece", align 8
  %8 = alloca %"class.google::protobuf::stringpiece_internal::StringPiece", align 8
  %9 = alloca %"struct.google::protobuf::strings::AlphaNum", align 8
  %10 = alloca %"class.google::protobuf::stringpiece_internal::StringPiece", align 8
  %11 = alloca %"struct.google::protobuf::strings::AlphaNum", align 8
  %12 = alloca %"class.google::protobuf::stringpiece_internal::StringPiece", align 8
  %13 = alloca %"struct.google::protobuf::strings::AlphaNum", align 8
  %14 = alloca %"class.google::protobuf::stringpiece_internal::StringPiece", align 8
  %15 = alloca %"struct.google::protobuf::strings::AlphaNum", align 8
  %16 = alloca %"struct.google::protobuf::strings::AlphaNum", align 8
  %17 = alloca %"class.google::protobuf::stringpiece_internal::StringPiece", align 8
  store ptr %0, ptr %6, align 8
  %18 = getelementptr inbounds nuw { ptr, i64 }, ptr %7, i32 0, i32 0
  store ptr %1, ptr %18, align 8
  %19 = getelementptr inbounds nuw { ptr, i64 }, ptr %7, i32 0, i32 1
  store i64 %2, ptr %19, align 8
  %20 = getelementptr inbounds nuw { ptr, i64 }, ptr %8, i32 0, i32 0
  store ptr %3, ptr %20, align 8
  %21 = getelementptr inbounds nuw { ptr, i64 }, ptr %8, i32 0, i32 1
  store i64 %4, ptr %21, align 8
  %22 = call noundef zeroext i1 @_ZNK6google8protobuf20stringpiece_internal11StringPiece5emptyEv(ptr noundef nonnull align 8 dereferenceable(16) %8)
  br i1 %22, label %38, label %23

23:                                               ; preds = %5
  %24 = call noundef i64 @_ZNK6google8protobuf20stringpiece_internal11StringPiece4sizeEv(ptr noundef nonnull align 8 dereferenceable(16) %8)
  %25 = sub i64 %24, 1
  %26 = call noundef signext i8 @_ZNK6google8protobuf20stringpiece_internal11StringPieceixEm(ptr noundef nonnull align 8 dereferenceable(16) %8, i64 noundef %25)
  %27 = sext i8 %26 to i32
  %28 = icmp eq i32 %27, 47
  br i1 %28, label %29, label %38

29:                                               ; preds = %23
  call void @llvm.lifetime.start.p0(i64 48, ptr %9) #3
  call void @llvm.memcpy.p0.p0.i64(ptr align 8 %10, ptr align 8 %8, i64 16, i1 false), !tbaa.struct !3
  %30 = getelementptr inbounds nuw { ptr, i64 }, ptr %10, i32 0, i32 0
  %31 = load ptr, ptr %30, align 8
  %32 = getelementptr inbounds nuw { ptr, i64 }, ptr %10, i32 0, i32 1
  %33 = load i64, ptr %32, align 8
  call void @_ZN6google8protobuf7strings8AlphaNumC2ENS0_20stringpiece_internal11StringPieceE(ptr noundef nonnull align 8 dereferenceable(48) %9, ptr %31, i64 %33)
  call void @llvm.lifetime.start.p0(i64 48, ptr %11) #3
  call void @llvm.memcpy.p0.p0.i64(ptr align 8 %12, ptr align 8 %7, i64 16, i1 false), !tbaa.struct !3
  %34 = getelementptr inbounds nuw { ptr, i64 }, ptr %12, i32 0, i32 0
  %35 = load ptr, ptr %34, align 8
  %36 = getelementptr inbounds nuw { ptr, i64 }, ptr %12, i32 0, i32 1
  %37 = load i64, ptr %36, align 8
  call void @_ZN6google8protobuf7strings8AlphaNumC2ENS0_20stringpiece_internal11StringPieceE(ptr noundef nonnull align 8 dereferenceable(48) %11, ptr %35, i64 %37)
  call void @_ZN6google8protobuf6StrCatB5cxx11ERKNS0_7strings8AlphaNumES4_(ptr dead_on_unwind writable sret(%"class.std::__cxx11::basic_string") align 8 %0, ptr noundef nonnull align 8 dereferenceable(48) %9, ptr noundef nonnull align 8 dereferenceable(48) %11)
  call void @llvm.lifetime.end.p0(i64 48, ptr %11) #3
  call void @llvm.lifetime.end.p0(i64 48, ptr %9) #3
  br label %47

38:                                               ; preds = %23, %5
  call void @llvm.lifetime.start.p0(i64 48, ptr %13) #3
  call void @llvm.memcpy.p0.p0.i64(ptr align 8 %14, ptr align 8 %8, i64 16, i1 false), !tbaa.struct !3
  %39 = getelementptr inbounds nuw { ptr, i64 }, ptr %14, i32 0, i32 0
  %40 = load ptr, ptr %39, align 8
  %41 = getelementptr inbounds nuw { ptr, i64 }, ptr %14, i32 0, i32 1
  %42 = load i64, ptr %41, align 8
  call void @_ZN6google8protobuf7strings8AlphaNumC2ENS0_20stringpiece_internal11StringPieceE(ptr noundef nonnull align 8 dereferenceable(48) %13, ptr %40, i64 %42)
  call void @llvm.lifetime.start.p0(i64 48, ptr %15) #3
  call void @_ZN6google8protobuf7strings8AlphaNumC2EPKc(ptr noundef nonnull align 8 dereferenceable(48) %15, ptr noundef @.str)
  call void @llvm.lifetime.start.p0(i64 48, ptr %16) #3
  call void @llvm.memcpy.p0.p0.i64(ptr align 8 %17, ptr align 8 %7, i64 16, i1 false), !tbaa.struct !3
  %43 = getelementptr inbounds nuw { ptr, i64 }, ptr %17, i32 0, i32 0
  %44 = load ptr, ptr %43, align 8
  %45 = getelementptr inbounds nuw { ptr, i64 }, ptr %17, i32 0, i32 1
  %46 = load i64, ptr %45, align 8
  call void @_ZN6google8protobuf7strings8AlphaNumC2ENS0_20stringpiece_internal11StringPieceE(ptr noundef nonnull align 8 dereferenceable(48) %16, ptr %44, i64 %46)
  call void @_ZN6google8protobuf6StrCatB5cxx11ERKNS0_7strings8AlphaNumES4_S4_(ptr dead_on_unwind writable sret(%"class.std::__cxx11::basic_string") align 8 %0, ptr noundef nonnull align 8 dereferenceable(48) %13, ptr noundef nonnull align 8 dereferenceable(48) %15, ptr noundef nonnull align 8 dereferenceable(48) %16)
  call void @llvm.lifetime.end.p0(i64 48, ptr %16) #3
  call void @llvm.lifetime.end.p0(i64 48, ptr %15) #3
  call void @llvm.lifetime.end.p0(i64 48, ptr %13) #3
  br label %47

47:                                               ; preds = %38, %29
  ret void
}