; Function Attrs: mustprogress uwtable
define hidden void @_ZN6google8protobuf8internal10GetTypeUrlB5cxx11ENS0_20stringpiece_internal11StringPieceES3_(ptr dead_on_unwind noalias writable sret(%"class.std::__cxx11::basic_string") align 8 %0, ptr %1, i64 %2, ptr %3, i64 %4) local_unnamed_addr #3 {
  %6 = alloca %"struct.google::protobuf::strings::AlphaNum", align 8
  %7 = alloca %"struct.google::protobuf::strings::AlphaNum", align 8
  %8 = alloca %"struct.google::protobuf::strings::AlphaNum", align 8
  %9 = alloca %"struct.google::protobuf::strings::AlphaNum", align 8
  %10 = alloca %"struct.google::protobuf::strings::AlphaNum", align 8
  %11 = icmp eq i64 %4, 0
  br i1 %11, label %20, label %12

12:                                               ; preds = %5
  %13 = getelementptr i8, ptr %3, i64 %4
  %14 = getelementptr i8, ptr %13, i64 -1
  %15 = load i8, ptr %14, align 1, !tbaa !3
  %16 = icmp eq i8 %15, 47
  br i1 %16, label %17, label %20

17:                                               ; preds = %12
  call void @llvm.lifetime.start.p0(i64 48, ptr nonnull %6) #12
  store ptr %3, ptr %6, align 8, !tbaa !6
  %18 = getelementptr inbounds nuw i8, ptr %6, i64 8
  store i64 %4, ptr %18, align 8, !tbaa !11
  call void @llvm.lifetime.start.p0(i64 48, ptr nonnull %7) #12
  store ptr %1, ptr %7, align 8, !tbaa !6
  %19 = getelementptr inbounds nuw i8, ptr %7, i64 8
  store i64 %2, ptr %19, align 8, !tbaa !11
  call void @_ZN6google8protobuf6StrCatB5cxx11ERKNS0_7strings8AlphaNumES4_(ptr dead_on_unwind writable sret(%"class.std::__cxx11::basic_string") align 8 %0, ptr noundef nonnull align 8 dereferenceable(48) %6, ptr noundef nonnull align 8 dereferenceable(48) %7)
  call void @llvm.lifetime.end.p0(i64 48, ptr nonnull %7) #12
  call void @llvm.lifetime.end.p0(i64 48, ptr nonnull %6) #12
  br label %24

20:                                               ; preds = %12, %5
  call void @llvm.lifetime.start.p0(i64 48, ptr nonnull %8) #12
  store ptr %3, ptr %8, align 8, !tbaa !6
  %21 = getelementptr inbounds nuw i8, ptr %8, i64 8
  store i64 %4, ptr %21, align 8, !tbaa !11
  call void @llvm.lifetime.start.p0(i64 48, ptr nonnull %9) #12
  store ptr @.str, ptr %9, align 8, !tbaa !6
  %22 = getelementptr inbounds nuw i8, ptr %9, i64 8
  store i64 1, ptr %22, align 8, !tbaa !11
  call void @llvm.lifetime.start.p0(i64 48, ptr nonnull %10) #12
  store ptr %1, ptr %10, align 8, !tbaa !6
  %23 = getelementptr inbounds nuw i8, ptr %10, i64 8
  store i64 %2, ptr %23, align 8, !tbaa !11
  call void @_ZN6google8protobuf6StrCatB5cxx11ERKNS0_7strings8AlphaNumES4_S4_(ptr dead_on_unwind writable sret(%"class.std::__cxx11::basic_string") align 8 %0, ptr noundef nonnull align 8 dereferenceable(48) %8, ptr noundef nonnull align 8 dereferenceable(48) %9, ptr noundef nonnull align 8 dereferenceable(48) %10)
  call void @llvm.lifetime.end.p0(i64 48, ptr nonnull %10) #12
  call void @llvm.lifetime.end.p0(i64 48, ptr nonnull %9) #12
  call void @llvm.lifetime.end.p0(i64 48, ptr nonnull %8) #12
  br label %24

24:                                               ; preds = %20, %17
  ret void
}